target datalayout = "e-m:e-p270:32:32-p271:32:32-p272:64:64-i64:64-i128:128-f80:128-n8:16:32:64-S128"
target triple = "x86_64-pc-linux-gnu"

%"class.icu_77::RBBITableBuilder" = type <{ ptr, ptr, ptr, ptr, ptr, ptr, i32, [4 x i8] }>
%"class.icu_77::UVector" = type { %"class.icu_77::UObject", i32, i32, ptr, ptr, ptr }
%"class.icu_77::UObject" = type { ptr }
%"class.icu_77::UnicodeString" = type { %"class.icu_77::Replaceable", %"union.icu_77::UnicodeString::StackBufferOrFields" }
%"class.icu_77::Replaceable" = type { %"class.icu_77::UObject" }
%"union.icu_77::UnicodeString::StackBufferOrFields" = type { %struct.anon.0, [32 x i8] }
%struct.anon.0 = type { i16, i32, i32, ptr }
%"class.icu_77::RBBINode" = type { i32, ptr, ptr, ptr, ptr, i32, %"class.icu_77::UnicodeString", i32, i32, i8, i32, i8, i8, i8, ptr, ptr, ptr }
%"class.icu_77::RBBIStateDescriptor" = type { i8, i32, i32, ptr, i32, ptr, ptr }

; Function Attrs: inlinehint mustprogress nounwind uwtable
define linkonce_odr noundef i32 @_ZNK6icu_777UVector4sizeEv(ptr noundef nonnull align 8 dereferenceable(40) %0) #1 comdat align 2 {
  %2 = alloca ptr, align 8
  store ptr %0, ptr %2, align 8, !tbaa !31
  %3 = load ptr, ptr %2, align 8
  %4 = getelementptr inbounds nuw %"class.icu_77::UVector", ptr %3, i32 0, i32 1
  %5 = load i32, ptr %4, align 8, !tbaa !32
  ret i32 %5
}

; Function Attrs: inlinehint mustprogress nounwind uwtable
define internal noundef signext i8 @_ZL9U_FAILURE10UErrorCode(i32 noundef %0) #1 {
  %2 = alloca i32, align 4
  store i32 %0, ptr %2, align 4, !tbaa !24
  %3 = load i32, ptr %2, align 4, !tbaa !24
  %4 = icmp sgt i32 %3, 0
  %5 = zext i1 %4 to i8
  ret i8 %5
}

; Function Attrs: mustprogress uwtable
define void @_ZN6icu_7716RBBITableBuilder16flagTaggedStatesEv(ptr noundef nonnull align 8 dereferenceable(52) %0) #0 align 2 personality ptr @__gxx_personality_v0 {
  %2 = alloca ptr, align 8
  %3 = alloca %"class.icu_77::UVector", align 8
  %4 = alloca ptr, align 8
  %5 = alloca i32, align 4
  %6 = alloca i32, align 4
  %7 = alloca ptr, align 8
  %8 = alloca i32, align 4
  %9 = alloca i32, align 4
  %10 = alloca ptr, align 8
  store ptr %0, ptr %2, align 8, !tbaa !3
  %11 = load ptr, ptr %2, align 8
  %12 = getelementptr inbounds nuw %"class.icu_77::RBBITableBuilder", ptr %11, i32 0, i32 2
  %13 = load ptr, ptr %12, align 8, !tbaa !19
  %14 = load i32, ptr %13, align 4, !tbaa !24
  %15 = call noundef signext i8 @_ZL9U_FAILURE10UErrorCode(i32 noundef %14)
  %16 = icmp ne i8 %15, 0
  br i1 %16, label %17, label %18

17:                                               ; preds = %1
  br label %98

18:                                               ; preds = %1
  call void @llvm.lifetime.start.p0(i64 40, ptr %3) #11
  %19 = getelementptr inbounds nuw %"class.icu_77::RBBITableBuilder", ptr %11, i32 0, i32 2
  %20 = load ptr, ptr %19, align 8, !tbaa !19
  call void @_ZN6icu_777UVectorC1ER10UErrorCode(ptr noundef nonnull align 8 dereferenceable(40) %3, ptr noundef nonnull align 4 dereferenceable(4) %20)
  call void @llvm.lifetime.start.p0(i64 8, ptr %4) #11
  call void @llvm.lifetime.start.p0(i64 4, ptr %5) #11
  call void @llvm.lifetime.start.p0(i64 4, ptr %6) #11
  %21 = getelementptr inbounds nuw %"class.icu_77::RBBITableBuilder", ptr %11, i32 0, i32 2
  %22 = load ptr, ptr %21, align 8, !tbaa !19
  %23 = load i32, ptr %22, align 4, !tbaa !24
  %24 = invoke noundef signext i8 @_ZL9U_FAILURE10UErrorCode(i32 noundef %23)
          to label %25 unwind label %28

25:                                               ; preds = %18
  %26 = icmp ne i8 %24, 0
  br i1 %26, label %27, label %32

27:                                               ; preds = %25
  store i32 1, ptr %9, align 4
  br label %96

28:                                               ; preds = %56, %52, %47, %38, %32, %18
  %29 = landingpad { ptr, i32 }
          cleanup
  %30 = extractvalue { ptr, i32 } %29, 0
  store ptr %30, ptr %7, align 8
  %31 = extractvalue { ptr, i32 } %29, 1
  store i32 %31, ptr %8, align 4
  br label %99

32:                                               ; preds = %25
  %33 = getelementptr inbounds nuw %"class.icu_77::RBBITableBuilder", ptr %11, i32 0, i32 1
  %34 = load ptr, ptr %33, align 8, !tbaa !36
  %35 = load ptr, ptr %34, align 8, !tbaa !37
  %36 = getelementptr inbounds nuw %"class.icu_77::RBBITableBuilder", ptr %11, i32 0, i32 2
  %37 = load ptr, ptr %36, align 8, !tbaa !19
  invoke void @_ZN6icu_778RBBINode9findNodesEPNS_7UVectorENS0_8NodeTypeER10UErrorCode(ptr noundef nonnull align 8 dereferenceable(160) %35, ptr noundef %3, i32 noundef 5, ptr noundef nonnull align 4 dereferenceable(4) %37)
          to label %38 unwind label %28

38:                                               ; preds = %32
  %39 = getelementptr inbounds nuw %"class.icu_77::RBBITableBuilder", ptr %11, i32 0, i32 2
  %40 = load ptr, ptr %39, align 8, !tbaa !19
  %41 = load i32, ptr %40, align 4, !tbaa !24
  %42 = invoke noundef signext i8 @_ZL9U_FAILURE10UErrorCode(i32 noundef %41)
          to label %43 unwind label %28

43:                                               ; preds = %38
  %44 = icmp ne i8 %42, 0
  br i1 %44, label %45, label %46

45:                                               ; preds = %43
  store i32 1, ptr %9, align 4
  br label %96

46:                                               ; preds = %43
  store i32 0, ptr %5, align 4, !tbaa !26
  br label %47

47:                                               ; preds = %92, %46
  %48 = load i32, ptr %5, align 4, !tbaa !26
  %49 = invoke noundef i32 @_ZNK6icu_777UVector4sizeEv(ptr noundef nonnull align 8 dereferenceable(40) %3)
          to label %50 unwind label %28

50:                                               ; preds = %47
  %51 = icmp slt i32 %48, %49
  br i1 %51, label %52, label %95

52:                                               ; preds = %50
  %53 = load i32, ptr %5, align 4, !tbaa !26
  %54 = invoke noundef ptr @_ZNK6icu_777UVector9elementAtEi(ptr noundef nonnull align 8 dereferenceable(40) %3, i32 noundef %53)
          to label %55 unwind label %28

55:                                               ; preds = %52
  store ptr %54, ptr %4, align 8, !tbaa !37
  store i32 0, ptr %6, align 4, !tbaa !26
  br label %56

56:                                               ; preds = %88, %55
  %57 = load i32, ptr %6, align 4, !tbaa !26
  %58 = getelementptr inbounds nuw %"class.icu_77::RBBITableBuilder", ptr %11, i32 0, i32 3
  %59 = load ptr, ptr %58, align 8, !tbaa !20
  %60 = invoke noundef i32 @_ZNK6icu_777UVector4sizeEv(ptr noundef nonnull align 8 dereferenceable(40) %59)
          to label %61 unwind label %28

61:                                               ; preds = %56
  %62 = icmp slt i32 %57, %60
  br i1 %62, label %63, label %91

63:                                               ; preds = %61
  call void @llvm.lifetime.start.p0(i64 8, ptr %10) #11
  %64 = getelementptr inbounds nuw %"class.icu_77::RBBITableBuilder", ptr %11, i32 0, i32 3
  %65 = load ptr, ptr %64, align 8, !tbaa !20
  %66 = load i32, ptr %6, align 4, !tbaa !26
  %67 = invoke noundef ptr @_ZNK6icu_777UVector9elementAtEi(ptr noundef nonnull align 8 dereferenceable(40) %65, i32 noundef %66)
          to label %68 unwind label %83

68:                                               ; preds = %63
  store ptr %67, ptr %10, align 8, !tbaa !70
  %69 = load ptr, ptr %10, align 8, !tbaa !70
  %70 = getelementptr inbounds nuw %"class.icu_77::RBBIStateDescriptor", ptr %69, i32 0, i32 5
  %71 = load ptr, ptr %70, align 8, !tbaa !72
  %72 = load ptr, ptr %4, align 8, !tbaa !37
  %73 = invoke noundef i32 @_ZNK6icu_777UVector7indexOfEPvi(ptr noundef nonnull align 8 dereferenceable(40) %71, ptr noundef %72, i32 noundef 0)
          to label %74 unwind label %83

74:                                               ; preds = %68
  %75 = icmp sge i32 %73, 0
  br i1 %75, label %76, label %87

76:                                               ; preds = %74
  %77 = load ptr, ptr %10, align 8, !tbaa !70
  %78 = getelementptr inbounds nuw %"class.icu_77::RBBIStateDescriptor", ptr %77, i32 0, i32 3
  %79 = load ptr, ptr %4, align 8, !tbaa !37
  %80 = getelementptr inbounds nuw %"class.icu_77::RBBINode", ptr %79, i32 0, i32 10
  %81 = load i32, ptr %80, align 4, !tbaa !55
  invoke void @_ZN6icu_7716RBBITableBuilder9sortedAddEPPNS_7UVectorEi(ptr noundef nonnull align 8 dereferenceable(52) %11, ptr noundef %78, i32 noundef %81)
          to label %82 unwind label %83

82:                                               ; preds = %76
  br label %87

83:                                               ; preds = %76, %68, %63
  %84 = landingpad { ptr, i32 }
          cleanup
  %85 = extractvalue { ptr, i32 } %84, 0
  store ptr %85, ptr %7, align 8
  %86 = extractvalue { ptr, i32 } %84, 1
  store i32 %86, ptr %8, align 4
  call void @llvm.lifetime.end.p0(i64 8, ptr %10) #11
  br label %99

87:                                               ; preds = %82, %74
  call void @llvm.lifetime.end.p0(i64 8, ptr %10) #11
  br label %88

88:                                               ; preds = %87
  %89 = load i32, ptr %6, align 4, !tbaa !26
  %90 = add nsw i32 %89, 1
  store i32 %90, ptr %6, align 4, !tbaa !26
  br label %56, !llvm.loop !96

91:                                               ; preds = %61
  br label %92

92:                                               ; preds = %91
  %93 = load i32, ptr %5, align 4, !tbaa !26
  %94 = add nsw i32 %93, 1
  store i32 %94, ptr %5, align 4, !tbaa !26
  br label %47, !llvm.loop !97

95:                                               ; preds = %50
  store i32 0, ptr %9, align 4
  br label %96

96:                                               ; preds = %95, %45, %27
  call void @llvm.lifetime.end.p0(i64 4, ptr %6) #11
  call void @llvm.lifetime.end.p0(i64 4, ptr %5) #11
  call void @llvm.lifetime.end.p0(i64 8, ptr %4) #11
  call void @_ZN6icu_777UVectorD1Ev(ptr noundef nonnull align 8 dereferenceable(40) %3) #11
  call void @llvm.lifetime.end.p0(i64 40, ptr %3) #11
  %97 = load i32, ptr %9, align 4
  switch i32 %97, label %105 [
    i32 0, label %98
    i32 1, label %98
  ]

98:                                               ; preds = %17, %96, %96
  ret void

99:                                               ; preds = %83, %28
  call void @llvm.lifetime.end.p0(i64 4, ptr %6) #11
  call void @llvm.lifetime.end.p0(i64 4, ptr %5) #11
  call void @llvm.lifetime.end.p0(i64 8, ptr %4) #11
  call void @_ZN6icu_777UVectorD1Ev(ptr noundef nonnull align 8 dereferenceable(40) %3) #11
  call void @llvm.lifetime.end.p0(i64 40, ptr %3) #11
  br label %100

100:                                              ; preds = %99
  %101 = load ptr, ptr %7, align 8
  %102 = load i32, ptr %8, align 4
  %103 = insertvalue { ptr, i32 } poison, ptr %101, 0
  %104 = insertvalue { ptr, i32 } %103, i32 %102, 1
  resume { ptr, i32 } %104

105:                                              ; preds = %96
  unreachable
}