; Function Attrs: mustprogress uwtable
define void @_ZN6icu_7716RBBITableBuilder16flagTaggedStatesEv(ptr noundef nonnull readonly align 8 captures(none) dereferenceable(52) %0) local_unnamed_addr #0 align 2 personality ptr @__gxx_personality_v0 {
  %2 = alloca %"class.icu_77::UVector", align 8
  %3 = getelementptr inbounds nuw i8, ptr %0, i64 16
  %4 = load ptr, ptr %3, align 8, !tbaa !15
  %5 = load i32, ptr %4, align 4, !tbaa !17
  %6 = icmp slt i32 %5, 1
  br i1 %6, label %7, label %53

7:                                                ; preds = %1
  call void @llvm.lifetime.start.p0(i64 40, ptr nonnull %2) #13
  call void @_ZN6icu_777UVectorC1ER10UErrorCode(ptr noundef nonnull align 8 dereferenceable(40) %2, ptr noundef nonnull align 4 dereferenceable(4) %4)
  %8 = load ptr, ptr %3, align 8, !tbaa !15
  %9 = load i32, ptr %8, align 4, !tbaa !17
  %10 = icmp slt i32 %9, 1
  br i1 %10, label %11, label %.loopexit

.loopexit19:                                      ; preds = %23
  %lpad.loopexit = landingpad { ptr, i32 }
          cleanup
  br label %54

.loopexit.split-lp:                               ; preds = %11
  %lpad.loopexit.split-lp = landingpad { ptr, i32 }
          cleanup
  br label %54

11:                                               ; preds = %7
  %12 = getelementptr inbounds nuw i8, ptr %0, i64 8
  %13 = load ptr, ptr %12, align 8, !tbaa !30
  %14 = load ptr, ptr %13, align 8, !tbaa !31
  invoke void @_ZN6icu_778RBBINode9findNodesEPNS_7UVectorENS0_8NodeTypeER10UErrorCode(ptr noundef nonnull align 8 dereferenceable(160) %14, ptr noundef nonnull %2, i32 noundef 5, ptr noundef nonnull align 4 dereferenceable(4) %8)
          to label %15 unwind label %.loopexit.split-lp

15:                                               ; preds = %11
  %16 = load ptr, ptr %3, align 8, !tbaa !15
  %17 = load i32, ptr %16, align 4, !tbaa !17
  %18 = icmp slt i32 %17, 1
  br i1 %18, label %.preheader18, label %.loopexit

.preheader18:                                     ; preds = %15
  %19 = getelementptr inbounds nuw i8, ptr %2, i64 8
  %20 = load i32, ptr %19, align 8, !tbaa !20
  %21 = icmp sgt i32 %20, 0
  br i1 %21, label %.lr.ph22, label %.loopexit

.lr.ph22:                                         ; preds = %.preheader18
  %22 = getelementptr inbounds nuw i8, ptr %0, i64 24
  br label %23

23:                                               ; preds = %.lr.ph22, %._crit_edge
  %.021 = phi i32 [ 0, %.lr.ph22 ], [ %50, %._crit_edge ]
  %24 = invoke noundef ptr @_ZNK6icu_777UVector9elementAtEi(ptr noundef nonnull align 8 dereferenceable(40) %2, i32 noundef %.021)
          to label %.preheader unwind label %.loopexit19

.preheader:                                       ; preds = %23
  %25 = load ptr, ptr %22, align 8, !tbaa !19
  %26 = getelementptr inbounds nuw i8, ptr %25, i64 8
  %27 = load i32, ptr %26, align 8, !tbaa !20
  %28 = icmp sgt i32 %27, 0
  br i1 %28, label %.lr.ph, label %._crit_edge

.lr.ph:                                           ; preds = %.preheader
  %29 = getelementptr inbounds nuw i8, ptr %24, i64 124
  br label %30

30:                                               ; preds = %.lr.ph, %44
  %31 = phi ptr [ %25, %.lr.ph ], [ %46, %44 ]
  %.01420 = phi i32 [ 0, %.lr.ph ], [ %45, %44 ]
  %32 = invoke noundef ptr @_ZNK6icu_777UVector9elementAtEi(ptr noundef nonnull align 8 dereferenceable(40) %31, i32 noundef %.01420)
          to label %33 unwind label %42

33:                                               ; preds = %30
  %34 = getelementptr inbounds nuw i8, ptr %32, i64 32
  %35 = load ptr, ptr %34, align 8, !tbaa !64
  %36 = invoke noundef i32 @_ZNK6icu_777UVector7indexOfEPvi(ptr noundef nonnull align 8 dereferenceable(40) %35, ptr noundef %24, i32 noundef 0)
          to label %37 unwind label %42

37:                                               ; preds = %33
  %38 = icmp sgt i32 %36, -1
  br i1 %38, label %39, label %44

39:                                               ; preds = %37
  %40 = getelementptr inbounds nuw i8, ptr %32, i64 16
  %41 = load i32, ptr %29, align 4, !tbaa !50
  invoke void @_ZN6icu_7716RBBITableBuilder9sortedAddEPPNS_7UVectorEi(ptr noundef nonnull align 8 dereferenceable(52) %0, ptr noundef nonnull %40, i32 noundef %41)
          to label %44 unwind label %42

42:                                               ; preds = %39, %33, %30
  %43 = landingpad { ptr, i32 }
          cleanup
  br label %54

44:                                               ; preds = %39, %37
  %45 = add nuw nsw i32 %.01420, 1
  %46 = load ptr, ptr %22, align 8, !tbaa !19
  %47 = getelementptr inbounds nuw i8, ptr %46, i64 8
  %48 = load i32, ptr %47, align 8, !tbaa !20
  %49 = icmp slt i32 %45, %48
  br i1 %49, label %30, label %._crit_edge, !llvm.loop !87

._crit_edge:                                      ; preds = %44, %.preheader
  %50 = add nuw nsw i32 %.021, 1
  %51 = load i32, ptr %19, align 8, !tbaa !20
  %52 = icmp slt i32 %50, %51
  br i1 %52, label %23, label %.loopexit, !llvm.loop !88

.loopexit:                                        ; preds = %._crit_edge, %.preheader18, %15, %7
  call void @_ZN6icu_777UVectorD1Ev(ptr noundef nonnull align 8 dereferenceable(40) %2) #13
  call void @llvm.lifetime.end.p0(i64 40, ptr nonnull %2) #13
  br label %53

53:                                               ; preds = %1, %.loopexit
  ret void

54:                                               ; preds = %.loopexit19, %.loopexit.split-lp, %42
  %.pn = phi { ptr, i32 } [ %43, %42 ], [ %lpad.loopexit, %.loopexit19 ], [ %lpad.loopexit.split-lp, %.loopexit.split-lp ]
  call void @_ZN6icu_777UVectorD1Ev(ptr noundef nonnull align 8 dereferenceable(40) %2) #13
  call void @llvm.lifetime.end.p0(i64 40, ptr nonnull %2) #13
  resume { ptr, i32 } %.pn
}